target datalayout = "e-m:e-p270:32:32-p271:32:32-p272:64:64-i64:64-i128:128-f80:128-n8:16:32:64-S128"
target triple = "x86_64-unknown-linux-gnu"

; Function Attrs: nounwind sspstrong uwtable
define dso_local void @e1000x_core_prepare_eeprom(ptr noundef %eeprom, ptr noundef %templ, i32 noundef %templ_size, i16 noundef zeroext %dev_id, ptr noundef %macaddr) #0 {
entry:
  %eeprom.addr = alloca ptr, align 8
  %templ.addr = alloca ptr, align 8
  %templ_size.addr = alloca i32, align 4
  %dev_id.addr = alloca i16, align 2
  %macaddr.addr = alloca ptr, align 8
  %checksum = alloca i16, align 2
  %i = alloca i32, align 4
  store ptr %eeprom, ptr %eeprom.addr, align 8
  store ptr %templ, ptr %templ.addr, align 8
  store i32 %templ_size, ptr %templ_size.addr, align 4
  store i16 %dev_id, ptr %dev_id.addr, align 2
  store ptr %macaddr, ptr %macaddr.addr, align 8
  store i16 0, ptr %checksum, align 2
  %0 = load ptr, ptr %eeprom.addr, align 8
  %1 = load ptr, ptr %templ.addr, align 8
  %2 = load i32, ptr %templ_size.addr, align 4
  %conv = zext i32 %2 to i64
  call void @llvm.memmove.p0.p0.i64(ptr align 2 %0, ptr align 2 %1, i64 %conv, i1 false)
  store i32 0, ptr %i, align 4
  br label %for.cond

for.cond:                                         ; preds = %for.inc, %entry
  %3 = load i32, ptr %i, align 4
  %cmp = icmp slt i32 %3, 3
  br i1 %cmp, label %for.body, label %for.end

for.body:                                         ; preds = %for.cond
  %4 = load ptr, ptr %macaddr.addr, align 8
  %5 = load i32, ptr %i, align 4
  %mul = mul i32 2, %5
  %add = add i32 %mul, 1
  %idxprom = sext i32 %add to i64
  %arrayidx = getelementptr i8, ptr %4, i64 %idxprom
  %6 = load i8, ptr %arrayidx, align 1
  %conv2 = zext i8 %6 to i32
  %shl = shl i32 %conv2, 8
  %7 = load ptr, ptr %macaddr.addr, align 8
  %8 = load i32, ptr %i, align 4
  %mul3 = mul i32 2, %8
  %idxprom4 = sext i32 %mul3 to i64
  %arrayidx5 = getelementptr i8, ptr %7, i64 %idxprom4
  %9 = load i8, ptr %arrayidx5, align 1
  %conv6 = zext i8 %9 to i32
  %or = or i32 %shl, %conv6
  %conv7 = trunc i32 %or to i16
  %10 = load ptr, ptr %eeprom.addr, align 8
  %11 = load i32, ptr %i, align 4
  %idxprom8 = sext i32 %11 to i64
  %arrayidx9 = getelementptr i16, ptr %10, i64 %idxprom8
  store i16 %conv7, ptr %arrayidx9, align 2
  br label %for.inc

for.inc:                                          ; preds = %for.body
  %12 = load i32, ptr %i, align 4
  %inc = add i32 %12, 1
  store i32 %inc, ptr %i, align 4
  br label %for.cond, !llvm.loop !8

for.end:                                          ; preds = %for.cond
  %13 = load i16, ptr %dev_id.addr, align 2
  %14 = load ptr, ptr %eeprom.addr, align 8
  %arrayidx10 = getelementptr i16, ptr %14, i64 13
  store i16 %13, ptr %arrayidx10, align 2
  %15 = load ptr, ptr %eeprom.addr, align 8
  %arrayidx11 = getelementptr i16, ptr %15, i64 11
  store i16 %13, ptr %arrayidx11, align 2
  store i32 0, ptr %i, align 4
  br label %for.cond12

for.cond12:                                       ; preds = %for.inc22, %for.end
  %16 = load i32, ptr %i, align 4
  %cmp13 = icmp slt i32 %16, 63
  br i1 %cmp13, label %for.body15, label %for.end24

for.body15:                                       ; preds = %for.cond12
  %17 = load ptr, ptr %eeprom.addr, align 8
  %18 = load i32, ptr %i, align 4
  %idxprom16 = sext i32 %18 to i64
  %arrayidx17 = getelementptr i16, ptr %17, i64 %idxprom16
  %19 = load i16, ptr %arrayidx17, align 2
  %conv18 = zext i16 %19 to i32
  %20 = load i16, ptr %checksum, align 2
  %conv19 = zext i16 %20 to i32
  %add20 = add i32 %conv19, %conv18
  %conv21 = trunc i32 %add20 to i16
  store i16 %conv21, ptr %checksum, align 2
  br label %for.inc22

for.inc22:                                        ; preds = %for.body15
  %21 = load i32, ptr %i, align 4
  %inc23 = add i32 %21, 1
  store i32 %inc23, ptr %i, align 4
  br label %for.cond12, !llvm.loop !9

for.end24:                                        ; preds = %for.cond12
  %22 = load i16, ptr %checksum, align 2
  %conv25 = zext i16 %22 to i32
  %sub = sub i32 47802, %conv25
  %conv26 = trunc i32 %sub to i16
  store i16 %conv26, ptr %checksum, align 2
  %23 = load i16, ptr %checksum, align 2
  %24 = load ptr, ptr %eeprom.addr, align 8
  %arrayidx27 = getelementptr i16, ptr %24, i64 63
  store i16 %23, ptr %arrayidx27, align 2
  ret void
}