; Function Attrs: nofree norecurse nosync nounwind sspstrong memory(argmem: readwrite) uwtable
define dso_local void @e1000x_core_prepare_eeprom(ptr noundef captures(none) %eeprom, ptr noundef readonly captures(none) %templ, i32 noundef %templ_size, i16 noundef zeroext %dev_id, ptr noundef readonly captures(none) %macaddr) local_unnamed_addr #2 {
entry:
  %conv = zext i32 %templ_size to i64
  tail call void @llvm.memmove.p0.p0.i64(ptr align 2 %eeprom, ptr align 2 %templ, i64 %conv, i1 false)
  br label %for.body

for.body:                                         ; preds = %entry, %for.body
  %indvars.iv = phi i64 [ 0, %entry ], [ %indvars.iv.next, %for.body ]
  %0 = shl nuw nsw i64 %indvars.iv, 1
  %1 = or disjoint i64 %0, 1
  %arrayidx = getelementptr i8, ptr %macaddr, i64 %1
  %2 = load i8, ptr %arrayidx, align 1
  %conv2 = zext i8 %2 to i16
  %shl = shl nuw i16 %conv2, 8
  %arrayidx5 = getelementptr i8, ptr %macaddr, i64 %0
  %3 = load i8, ptr %arrayidx5, align 1
  %conv6 = zext i8 %3 to i16
  %or = or disjoint i16 %shl, %conv6
  %arrayidx9 = getelementptr i16, ptr %eeprom, i64 %indvars.iv
  store i16 %or, ptr %arrayidx9, align 2
  %indvars.iv.next = add nuw nsw i64 %indvars.iv, 1
  %exitcond.not = icmp eq i64 %indvars.iv.next, 3
  br i1 %exitcond.not, label %for.end, label %for.body, !llvm.loop !8

for.end:                                          ; preds = %for.body
  %arrayidx10 = getelementptr i8, ptr %eeprom, i64 26
  store i16 %dev_id, ptr %arrayidx10, align 2
  %arrayidx11 = getelementptr i8, ptr %eeprom, i64 22
  store i16 %dev_id, ptr %arrayidx11, align 2
  br label %for.body15

for.body15:                                       ; preds = %for.end, %for.body15
  %indvars.iv23 = phi i64 [ 0, %for.end ], [ %indvars.iv.next24, %for.body15 ]
  %checksum.017 = phi i16 [ 0, %for.end ], [ %add20, %for.body15 ]
  %arrayidx17 = getelementptr i16, ptr %eeprom, i64 %indvars.iv23
  %4 = load i16, ptr %arrayidx17, align 2
  %add20 = add i16 %4, %checksum.017
  %indvars.iv.next24 = add nuw nsw i64 %indvars.iv23, 1
  %exitcond25.not = icmp eq i64 %indvars.iv.next24, 63
  br i1 %exitcond25.not, label %for.end24, label %for.body15, !llvm.loop !9

for.end24:                                        ; preds = %for.body15
  %sub = sub i16 -17734, %add20
  %arrayidx27 = getelementptr i8, ptr %eeprom, i64 126
  store i16 %sub, ptr %arrayidx27, align 2
  ret void
}